target datalayout = "e-m:e-p270:32:32-p271:32:32-p272:64:64-i64:64-i128:128-f80:128-n8:16:32:64-S128"
target triple = "x86_64-pc-linux-gnu"

%"struct.zmq::options_t" = type { i32, i32, i64, i8, [256 x i8], i32, i32, i32, i32, i32, i32, i32, i32, i8, %"struct.zmq::atomic_value_t", i32, i32, i32, i32, i32, i32, i64, i32, i32, i8, i32, i8, i8, i8, i8, i8, %"class.std::__cxx11::basic_string", %"class.std::__cxx11::basic_string", %"class.std::__cxx11::basic_string", i32, i32, i32, i32, %"class.std::vector", %"class.std::set", %"class.std::set", %"class.std::set.6", i32, i32, %"class.std::__cxx11::basic_string", %"class.std::__cxx11::basic_string", %"class.std::__cxx11::basic_string", [32 x i8], [32 x i8], [32 x i8], %"class.std::__cxx11::basic_string", %"class.std::__cxx11::basic_string", i32, i32, i8, i32, i8, i32, i8, i16, i32, i32, i32, %"class.std::__cxx11::basic_string", i8, i8, i8, i32, i32, i8, i32, %"class.std::map", i32, %"class.std::__cxx11::basic_string", %"class.std::__cxx11::basic_string", %"class.std::__cxx11::basic_string", %"class.std::__cxx11::basic_string", i8, %"class.std::vector.17", i8, %"class.std::vector.17", i8, %"class.std::vector.17", i8, i32, i8, i32, i32, i32, i32, i32, i8, i32 }
%"struct.zmq::atomic_value_t" = type { %"struct.std::atomic" }
%"struct.std::atomic" = type { %"struct.std::__atomic_base" }
%"struct.std::__atomic_base" = type { i32 }
%"class.std::vector" = type { %"struct.std::_Vector_base" }
%"struct.std::_Vector_base" = type { %"struct.std::_Vector_base<zmq::tcp_address_mask_t, std::allocator<zmq::tcp_address_mask_t>>::_Vector_impl" }
%"struct.std::_Vector_base<zmq::tcp_address_mask_t, std::allocator<zmq::tcp_address_mask_t>>::_Vector_impl" = type { %"struct.std::_Vector_base<zmq::tcp_address_mask_t, std::allocator<zmq::tcp_address_mask_t>>::_Vector_impl_data" }
%"struct.std::_Vector_base<zmq::tcp_address_mask_t, std::allocator<zmq::tcp_address_mask_t>>::_Vector_impl_data" = type { ptr, ptr, ptr }
%"class.std::set" = type { %"class.std::_Rb_tree" }
%"class.std::_Rb_tree" = type { %"struct.std::_Rb_tree<unsigned int, unsigned int, std::_Identity<unsigned int>, std::less<unsigned int>>::_Rb_tree_impl" }
%"struct.std::_Rb_tree<unsigned int, unsigned int, std::_Identity<unsigned int>, std::less<unsigned int>>::_Rb_tree_impl" = type { [8 x i8], %"struct.std::_Rb_tree_header" }
%"struct.std::_Rb_tree_header" = type { %"struct.std::_Rb_tree_node_base", i64 }
%"struct.std::_Rb_tree_node_base" = type { i32, ptr, ptr, ptr }
%"class.std::set.6" = type { %"class.std::_Rb_tree.7" }
%"class.std::_Rb_tree.7" = type { %"struct.std::_Rb_tree<int, int, std::_Identity<int>, std::less<int>>::_Rb_tree_impl" }
%"struct.std::_Rb_tree<int, int, std::_Identity<int>, std::less<int>>::_Rb_tree_impl" = type { [8 x i8], %"struct.std::_Rb_tree_header" }
%"class.std::map" = type { %"class.std::_Rb_tree.12" }
%"class.std::_Rb_tree.12" = type { %"struct.std::_Rb_tree<std::__cxx11::basic_string<char>, std::pair<const std::__cxx11::basic_string<char>, std::__cxx11::basic_string<char>>, std::_Select1st<std::pair<const std::__cxx11::basic_string<char>, std::__cxx11::basic_string<char>>>, std::less<std::__cxx11::basic_string<char>>>::_Rb_tree_impl" }
%"struct.std::_Rb_tree<std::__cxx11::basic_string<char>, std::pair<const std::__cxx11::basic_string<char>, std::__cxx11::basic_string<char>>, std::_Select1st<std::pair<const std::__cxx11::basic_string<char>, std::__cxx11::basic_string<char>>>, std::less<std::__cxx11::basic_string<char>>>::_Rb_tree_impl" = type { [8 x i8], %"struct.std::_Rb_tree_header" }
%"class.std::__cxx11::basic_string" = type { %"struct.std::__cxx11::basic_string<char>::_Alloc_hider", i64, %union.anon }
%"struct.std::__cxx11::basic_string<char>::_Alloc_hider" = type { ptr }
%union.anon = type { i64, [8 x i8] }
%"class.std::vector.17" = type { %"struct.std::_Vector_base.18" }
%"struct.std::_Vector_base.18" = type { %"struct.std::_Vector_base<unsigned char, std::allocator<unsigned char>>::_Vector_impl" }
%"struct.std::_Vector_base<unsigned char, std::allocator<unsigned char>>::_Vector_impl" = type { %"struct.std::_Vector_base<unsigned char, std::allocator<unsigned char>>::_Vector_impl_data" }
%"struct.std::_Vector_base<unsigned char, std::allocator<unsigned char>>::_Vector_impl_data" = type { ptr, ptr, ptr }
%"class.zmq::session_base_t" = type { %"class.zmq::own_t.base", %"class.zmq::io_object_t", %"struct.zmq::i_pipe_events", i8, ptr, ptr, %"class.std::set.30", i8, i8, ptr, ptr, ptr, i8, ptr, %"class.std::__cxx11::basic_string" }
%"class.zmq::own_t.base" = type <{ %"class.zmq::object_t.base", [4 x i8], %"struct.zmq::options_t", i8, [7 x i8], %"class.zmq::atomic_counter_t", i64, ptr, %"class.std::set.24", i32 }>
%"class.zmq::object_t.base" = type <{ ptr, ptr, i32 }>
%"class.zmq::atomic_counter_t" = type { %"struct.std::atomic.22", [4 x i8] }
%"struct.std::atomic.22" = type { %"struct.std::__atomic_base.23" }
%"struct.std::__atomic_base.23" = type { i32 }
%"class.std::set.24" = type { %"class.std::_Rb_tree.25" }
%"class.std::_Rb_tree.25" = type { %"struct.std::_Rb_tree<zmq::own_t *, zmq::own_t *, std::_Identity<zmq::own_t *>, std::less<zmq::own_t *>>::_Rb_tree_impl" }
%"struct.std::_Rb_tree<zmq::own_t *, zmq::own_t *, std::_Identity<zmq::own_t *>, std::less<zmq::own_t *>>::_Rb_tree_impl" = type { [8 x i8], %"struct.std::_Rb_tree_header" }
%"class.zmq::io_object_t" = type { %"struct.zmq::i_poll_events", ptr }
%"struct.zmq::i_poll_events" = type { ptr }
%"struct.zmq::i_pipe_events" = type { ptr }
%"class.std::set.30" = type { %"class.std::_Rb_tree.31" }
%"class.std::_Rb_tree.31" = type { %"struct.std::_Rb_tree<zmq::pipe_t *, zmq::pipe_t *, std::_Identity<zmq::pipe_t *>, std::less<zmq::pipe_t *>>::_Rb_tree_impl" }
%"struct.std::_Rb_tree<zmq::pipe_t *, zmq::pipe_t *, std::_Identity<zmq::pipe_t *>, std::less<zmq::pipe_t *>>::_Rb_tree_impl" = type { [8 x i8], %"struct.std::_Rb_tree_header" }

@stderr = external global ptr, align 8
@.str.1 = private unnamed_addr constant [112 x i8] c"generated/home/dtcxzyw/WorkSpace/Projects/compilers/llvm-opt-benchmark/bench/libzmq/libzmq/src/session_base.cpp\00", align 1
@.str.3 = private unnamed_addr constant [30 x i8] c"Assertion failed: %s (%s:%d)\0A\00", align 1
@.str.11 = private unnamed_addr constant [38 x i8] c"_terminating_pipes.count (pipe_) == 1\00", align 1

; Function Attrs: mustprogress uwtable
define void @_ZN3zmq14session_base_t14read_activatedEPNS_6pipe_tE(ptr noundef nonnull align 8 dereferenceable(1624) %0, ptr noundef %1) unnamed_addr #0 align 2 {
  %3 = alloca ptr, align 8
  %4 = alloca ptr, align 8
  store ptr %0, ptr %3, align 8, !tbaa !16
  store ptr %1, ptr %4, align 8, !tbaa !109
  %5 = load ptr, ptr %3, align 8
  %6 = load ptr, ptr %4, align 8, !tbaa !109
  %7 = getelementptr inbounds nuw %"class.zmq::session_base_t", ptr %5, i32 0, i32 4
  %8 = load ptr, ptr %7, align 8, !tbaa !94
  %9 = icmp ne ptr %6, %8
  br i1 %9, label %10, label %15

10:                                               ; preds = %2
  %11 = load ptr, ptr %4, align 8, !tbaa !109
  %12 = getelementptr inbounds nuw %"class.zmq::session_base_t", ptr %5, i32 0, i32 5
  %13 = load ptr, ptr %12, align 8, !tbaa !95
  %14 = icmp ne ptr %11, %13
  br label %15

15:                                               ; preds = %10, %2
  %16 = phi i1 [ false, %2 ], [ %14, %10 ]
  %17 = zext i1 %16 to i64
  %18 = call i64 @llvm.expect.i64(i64 %17, i64 0)
  %19 = icmp ne i64 %18, 0
  br i1 %19, label %20, label %36

20:                                               ; preds = %15
  br label %21

21:                                               ; preds = %20
  %22 = getelementptr inbounds nuw %"class.zmq::session_base_t", ptr %5, i32 0, i32 6
  %23 = call noundef i64 @_ZNKSt3setIPN3zmq6pipe_tESt4lessIS2_ESaIS2_EE5countERKS2_(ptr noundef nonnull align 8 dereferenceable(48) %22, ptr noundef nonnull align 8 dereferenceable(8) %4)
  %24 = icmp eq i64 %23, 1
  %25 = xor i1 %24, true
  %26 = zext i1 %25 to i64
  %27 = call i64 @llvm.expect.i64(i64 %26, i64 0)
  %28 = icmp ne i64 %27, 0
  br i1 %28, label %29, label %34

29:                                               ; preds = %21
  %30 = load ptr, ptr @stderr, align 8, !tbaa !61
  %31 = call i32 (ptr, ptr, ...) @fprintf(ptr noundef %30, ptr noundef @.str.3, ptr noundef @.str.11, ptr noundef @.str.1, i32 noundef 279) #21
  %32 = load ptr, ptr @stderr, align 8, !tbaa !61
  %33 = call i32 @fflush(ptr noundef %32)
  call void @_ZN3zmq9zmq_abortEPKc(ptr noundef @.str.11)
  br label %34

34:                                               ; preds = %29, %21
  br label %35

35:                                               ; preds = %34
  br label %72

36:                                               ; preds = %15
  %37 = getelementptr inbounds nuw %"class.zmq::session_base_t", ptr %5, i32 0, i32 9
  %38 = load ptr, ptr %37, align 8, !tbaa !98
  %39 = icmp eq ptr %38, null
  %40 = zext i1 %39 to i64
  %41 = call i64 @llvm.expect.i64(i64 %40, i64 0)
  %42 = icmp ne i64 %41, 0
  br i1 %42, label %43, label %52

43:                                               ; preds = %36
  %44 = getelementptr inbounds nuw %"class.zmq::session_base_t", ptr %5, i32 0, i32 4
  %45 = load ptr, ptr %44, align 8, !tbaa !94
  %46 = icmp ne ptr %45, null
  br i1 %46, label %47, label %51

47:                                               ; preds = %43
  %48 = getelementptr inbounds nuw %"class.zmq::session_base_t", ptr %5, i32 0, i32 4
  %49 = load ptr, ptr %48, align 8, !tbaa !94
  %50 = call noundef zeroext i1 @_ZN3zmq6pipe_t10check_readEv(ptr noundef nonnull align 8 dereferenceable(328) %49)
  br label %51

51:                                               ; preds = %47, %43
  br label %72

52:                                               ; preds = %36
  %53 = load ptr, ptr %4, align 8, !tbaa !109
  %54 = getelementptr inbounds nuw %"class.zmq::session_base_t", ptr %5, i32 0, i32 4
  %55 = load ptr, ptr %54, align 8, !tbaa !94
  %56 = icmp eq ptr %53, %55
  %57 = zext i1 %56 to i64
  %58 = call i64 @llvm.expect.i64(i64 %57, i64 1)
  %59 = icmp ne i64 %58, 0
  br i1 %59, label %60, label %66

60:                                               ; preds = %52
  %61 = getelementptr inbounds nuw %"class.zmq::session_base_t", ptr %5, i32 0, i32 9
  %62 = load ptr, ptr %61, align 8, !tbaa !98
  %63 = load ptr, ptr %62, align 8, !tbaa !67
  %64 = getelementptr inbounds ptr, ptr %63, i64 6
  %65 = load ptr, ptr %64, align 8
  call void %65(ptr noundef nonnull align 8 dereferenceable(8) %62)
  br label %72

66:                                               ; preds = %52
  %67 = getelementptr inbounds nuw %"class.zmq::session_base_t", ptr %5, i32 0, i32 9
  %68 = load ptr, ptr %67, align 8, !tbaa !98
  %69 = load ptr, ptr %68, align 8, !tbaa !67
  %70 = getelementptr inbounds ptr, ptr %69, i64 7
  %71 = load ptr, ptr %70, align 8
  call void %71(ptr noundef nonnull align 8 dereferenceable(8) %68)
  br label %72

72:                                               ; preds = %35, %51, %66, %60
  ret void
}