; Function Attrs: mustprogress uwtable
define void @_ZN3zmq14session_base_t14read_activatedEPNS_6pipe_tE(ptr noundef nonnull align 8 dereferenceable(1624) %0, ptr noundef %1) unnamed_addr #0 align 2 {
  %3 = alloca ptr, align 8
  store ptr %1, ptr %3, align 8, !tbaa !107
  %4 = getelementptr inbounds nuw i8, ptr %0, i64 1480
  %5 = load ptr, ptr %4, align 8, !tbaa !101
  %.not = icmp ne ptr %1, %5
  %6 = getelementptr inbounds nuw i8, ptr %0, i64 1488
  %7 = load ptr, ptr %6, align 8
  %8 = icmp ne ptr %1, %7
  %9 = select i1 %.not, i1 %8, i1 false
  br i1 %9, label %10, label %18, !prof !104

10:                                               ; preds = %2
  %11 = getelementptr inbounds nuw i8, ptr %0, i64 1496
  %12 = call noundef i64 @_ZNKSt3setIPN3zmq6pipe_tESt4lessIS2_ESaIS2_EE5countERKS2_(ptr noundef nonnull align 8 dereferenceable(48) %11, ptr noundef nonnull align 8 dereferenceable(8) %3)
  %.not4 = icmp eq i64 %12, 1
  br i1 %.not4, label %33, label %13, !prof !102

13:                                               ; preds = %10
  %14 = load ptr, ptr @stderr, align 8, !tbaa !52
  %15 = call i32 (ptr, ptr, ...) @fprintf(ptr noundef %14, ptr noundef nonnull @.str.3, ptr noundef nonnull @.str.11, ptr noundef nonnull @.str.1, i32 noundef 279) #27
  %16 = load ptr, ptr @stderr, align 8, !tbaa !52
  %17 = call i32 @fflush(ptr noundef %16)
  call void @_ZN3zmq9zmq_abortEPKc(ptr noundef nonnull @.str.11)
  br label %33

18:                                               ; preds = %2
  %19 = getelementptr inbounds nuw i8, ptr %0, i64 1552
  %20 = load ptr, ptr %19, align 8, !tbaa !91
  %21 = icmp eq ptr %20, null
  br i1 %21, label %22, label %25, !prof !104

22:                                               ; preds = %18
  %.not3 = icmp eq ptr %5, null
  br i1 %.not3, label %33, label %23

23:                                               ; preds = %22
  %24 = tail call noundef zeroext i1 @_ZN3zmq6pipe_t10check_readEv(ptr noundef nonnull align 8 dereferenceable(328) %5)
  br label %33

25:                                               ; preds = %18
  %26 = load ptr, ptr %20, align 8, !tbaa !54
  br i1 %.not, label %30, label %27, !prof !104

27:                                               ; preds = %25
  %28 = getelementptr inbounds nuw i8, ptr %26, i64 48
  %29 = load ptr, ptr %28, align 8
  tail call void %29(ptr noundef nonnull align 8 dereferenceable(8) %20)
  br label %33

30:                                               ; preds = %25
  %31 = getelementptr inbounds nuw i8, ptr %26, i64 56
  %32 = load ptr, ptr %31, align 8
  tail call void %32(ptr noundef nonnull align 8 dereferenceable(8) %20)
  br label %33

33:                                               ; preds = %22, %23, %13, %10, %30, %27
  ret void
}